; Function Attrs: mustprogress nounwind uwtable
define dso_local void @_ZNK5clang6driver6Driver12PrintActionsERKNS0_11CompilationE(ptr nocapture noundef nonnull readnone align 8 dereferenceable(1192) %0, ptr noundef nonnull align 8 dereferenceable(523) %1) local_unnamed_addr #0 align 2 {
  %3 = alloca %"class.std::map.462", align 8
  %4 = alloca %"class.llvm::Twine", align 8
  %5 = getelementptr inbounds i8, ptr %3, i64 8
  store i32 0, ptr %5, align 8
  %6 = getelementptr inbounds i8, ptr %3, i64 16
  store ptr null, ptr %6, align 8
  %7 = getelementptr inbounds i8, ptr %3, i64 24
  store ptr %5, ptr %7, align 8
  %8 = getelementptr inbounds i8, ptr %3, i64 32
  store ptr %5, ptr %8, align 8
  %9 = getelementptr inbounds i8, ptr %3, i64 40
  store i64 0, ptr %9, align 8
  %10 = getelementptr inbounds nuw i8, ptr %1, i64 112
  %11 = load ptr, ptr %10, align 8
  %12 = call noundef i64 @_ZNK4llvm15SmallVectorBaseIjE4sizeEv(ptr noundef nonnull align 8 dereferenceable(16) %10) #30
  %13 = getelementptr inbounds ptr, ptr %11, i64 %12
  %.not9 = icmp eq i64 %12, 0
  br i1 %.not9, label %._crit_edge, label %.lr.ph

.lr.ph:                                           ; preds = %2
  %14 = getelementptr inbounds nuw i8, ptr %4, i64 32
  %15 = getelementptr inbounds nuw i8, ptr %4, i64 33
  br label %16

16:                                               ; preds = %.lr.ph, %16
  %.010 = phi ptr [ %11, %.lr.ph ], [ %19, %16 ]
  %17 = load ptr, ptr %.010, align 8
  store i8 1, ptr %14, align 8
  store i8 1, ptr %15, align 1
  %18 = call fastcc noundef i32 @_ZL13PrintActions1RKN5clang6driver11CompilationEPNS0_6ActionERSt3mapIS5_jSt4lessIS5_ESaISt4pairIKS5_jEEEN4llvm5TwineEi(ptr noundef nonnull align 8 dereferenceable(523) %1, ptr noundef %17, ptr noundef nonnull align 8 dereferenceable(48) %3, ptr noundef nonnull byval(%"class.llvm::Twine") align 8 %4, i32 noundef 0)
  %19 = getelementptr inbounds i8, ptr %.010, i64 8
  %.not = icmp eq ptr %19, %13
  br i1 %.not, label %._crit_edge, label %16

._crit_edge:                                      ; preds = %16, %2
  %20 = load ptr, ptr %6, align 8
  call void @_ZNSt8_Rb_treeIPN5clang6driver6ActionESt4pairIKS3_jESt10_Select1stIS6_ESt4lessIS3_ESaIS6_EE8_M_eraseEPSt13_Rb_tree_nodeIS6_E(ptr noundef nonnull align 8 dereferenceable(48) %3, ptr noundef %20)
  ret void
}